target datalayout = "e-m:e-p270:32:32-p271:32:32-p272:64:64-i64:64-i128:128-f80:128-n8:16:32:64-S128"
target triple = "x86_64-unknown-linux-gnu"

%class.btMinkowskiSumShape = type { %class.btConvexInternalShape, %class.btTransform, %class.btTransform, ptr, ptr }
%class.btConvexInternalShape = type { %class.btConvexShape, %class.btVector3, %class.btVector3, float, float }
%class.btConvexShape = type { %class.btCollisionShape }
%class.btCollisionShape = type { ptr, i32, ptr, i32, i32 }
%class.btVector3 = type { [4 x float] }
%class.btTransform = type { %class.btMatrix3x3, %class.btVector3 }
%class.btMatrix3x3 = type { [3 x %class.btVector3] }

; Function Attrs: mustprogress uwtable
define dso_local noundef float @_ZNK19btMinkowskiSumShape9getMarginEv(ptr noundef nonnull align 8 dereferenceable(216) %this) unnamed_addr #2 align 2 {
entry:
  %this.addr = alloca ptr, align 8
  store ptr %this, ptr %this.addr, align 8
  %this1 = load ptr, ptr %this.addr, align 8
  %m_shapeA = getelementptr inbounds %class.btMinkowskiSumShape, ptr %this1, i32 0, i32 3
  %0 = load ptr, ptr %m_shapeA, align 8
  %vtable = load ptr, ptr %0, align 8
  %vfn = getelementptr inbounds ptr, ptr %vtable, i64 12
  %1 = load ptr, ptr %vfn, align 8
  %call = call noundef float %1(ptr noundef nonnull align 8 dereferenceable(32) %0)
  %m_shapeB = getelementptr inbounds %class.btMinkowskiSumShape, ptr %this1, i32 0, i32 4
  %2 = load ptr, ptr %m_shapeB, align 8
  %vtable2 = load ptr, ptr %2, align 8
  %vfn3 = getelementptr inbounds ptr, ptr %vtable2, i64 12
  %3 = load ptr, ptr %vfn3, align 8
  %call4 = call noundef float %3(ptr noundef nonnull align 8 dereferenceable(32) %2)
  %add = fadd float %call, %call4
  ret float %add
}