; Function Attrs: mustprogress uwtable
define dso_local noundef float @_ZNK19btMinkowskiSumShape9getMarginEv(ptr nocapture noundef nonnull readonly align 8 dereferenceable(216) %this) unnamed_addr #0 align 2 {
entry:
  %m_shapeA = getelementptr inbounds i8, ptr %this, i64 200
  %0 = load ptr, ptr %m_shapeA, align 8
  %vtable = load ptr, ptr %0, align 8
  %vfn = getelementptr inbounds i8, ptr %vtable, i64 96
  %1 = load ptr, ptr %vfn, align 8
  %call = tail call noundef float %1(ptr noundef nonnull align 8 dereferenceable(32) %0)
  %m_shapeB = getelementptr inbounds i8, ptr %this, i64 208
  %2 = load ptr, ptr %m_shapeB, align 8
  %vtable2 = load ptr, ptr %2, align 8
  %vfn3 = getelementptr inbounds i8, ptr %vtable2, i64 96
  %3 = load ptr, ptr %vfn3, align 8
  %call4 = tail call noundef float %3(ptr noundef nonnull align 8 dereferenceable(32) %2)
  %add = fadd float %call, %call4
  ret float %add
}